; Function Attrs: nounwind uwtable
define internal noundef i32 @_handle_abort(i32 %0, i32 %1, ptr noundef %2) #0 {
  %4 = alloca i8, align 1
  call void @llvm.lifetime.start.p0(i64 1, ptr nonnull %4) #7
  store i8 0, ptr %4, align 1
  %5 = tail call i32 @slurm_get_log_level() #7
  %6 = icmp sgt i32 %5, 6
  br i1 %6, label %7, label %8

7:                                                ; preds = %3
  tail call void (i32, ptr, ...) @slurm_log_var(i32 noundef 7, ptr noundef nonnull @.str.40, ptr noundef nonnull @plugin_type, ptr noundef nonnull @__func__._handle_abort) #7
  br label %8

8:                                                ; preds = %7, %3
  %9 = tail call i32 @client_req_parse_body(ptr noundef %2) #7
  %10 = call zeroext i1 @client_req_get_bool(ptr noundef %2, ptr noundef nonnull @.str.41, ptr noundef nonnull %4) #7
  %11 = load i8, ptr %4, align 1, !range !13, !noundef !14
  %12 = trunc nuw i8 %11 to i1
  br i1 %12, label %13, label %17

13:                                               ; preds = %8
  %14 = load i32, ptr getelementptr inbounds nuw (i8, ptr @job_info, i64 8), align 8
  %15 = load i32, ptr getelementptr inbounds nuw (i8, ptr @job_info, i64 16), align 8
  %16 = call i32 @slurm_kill_job_step(i32 noundef %14, i32 noundef %15, i16 noundef zeroext 9, i16 noundef zeroext 0) #7
  br label %17

17:                                               ; preds = %13, %8
  call void @llvm.lifetime.end.p0(i64 1, ptr nonnull %4) #7
  ret i32 0
}